target datalayout = "e-m:e-p270:32:32-p271:32:32-p272:64:64-i64:64-i128:128-f80:128-n8:16:32:64-S128"
target triple = "x86_64-pc-linux-gnu"

%struct.ObjectAddress = type { i32, i32, i32 }
%struct.nameData = type { [64 x i8] }
%struct.HeapTupleData = type { i32, %struct.ItemPointerData, i32, ptr }
%struct.ItemPointerData = type { %struct.BlockIdData, i16 }
%struct.BlockIdData = type { i16, i16 }
%struct.HeapTupleHeaderData = type { %union.anon, %struct.ItemPointerData, i16, i16, i8, [0 x i8] }
%union.anon = type { %struct.HeapTupleFields }
%struct.HeapTupleFields = type { i32, i32, %union.anon.0 }
%union.anon.0 = type { i32 }
%struct.FormData_pg_namespace = type { i32, %struct.nameData, i32 }

@.str.1 = private unnamed_addr constant [13 x i8] c"schemacmds.c\00", align 1
@MyDatabaseId = external global i32, align 4
@allowSystemTableMods = external global i8, align 1
@.str.2 = private unnamed_addr constant [30 x i8] c"unacceptable schema name \22%s\22\00", align 1
@.str.3 = private unnamed_addr constant [49 x i8] c"The prefix \22pg_\22 is reserved for system schemas.\00", align 1
@.str.7 = private unnamed_addr constant [27 x i8] c"schema \22%s\22 does not exist\00", align 1
@__func__.RenameSchema = private unnamed_addr constant [13 x i8] c"RenameSchema\00", align 1
@.str.8 = private unnamed_addr constant [27 x i8] c"schema \22%s\22 already exists\00", align 1
@object_access_hook = external global ptr, align 8

; Function Attrs: inlinehint nounwind uwtable
define internal i64 @PointerGetDatum(ptr noundef %0) #3 {
  %2 = alloca ptr, align 8
  store ptr %0, ptr %2, align 8
  %3 = load ptr, ptr %2, align 8
  %4 = ptrtoint ptr %3 to i64
  ret i64 %4
}

; Function Attrs: inlinehint nounwind uwtable
define internal ptr @GETSTRUCT(ptr noundef %0) #3 {
  %2 = alloca ptr, align 8
  store ptr %0, ptr %2, align 8
  %3 = load ptr, ptr %2, align 8
  %4 = getelementptr inbounds nuw %struct.HeapTupleData, ptr %3, i32 0, i32 3
  %5 = load ptr, ptr %4, align 8
  %6 = load ptr, ptr %2, align 8
  %7 = getelementptr inbounds nuw %struct.HeapTupleData, ptr %6, i32 0, i32 3
  %8 = load ptr, ptr %7, align 8
  %9 = getelementptr inbounds nuw %struct.HeapTupleHeaderData, ptr %8, i32 0, i32 4
  %10 = load i8, ptr %9, align 2
  %11 = zext i8 %10 to i32
  %12 = sext i32 %11 to i64
  %13 = getelementptr inbounds i8, ptr %5, i64 %12
  ret ptr %13
}

; Function Attrs: inlinehint nounwind uwtable
define internal i64 @CStringGetDatum(ptr noundef %0) #3 {
  %2 = alloca ptr, align 8
  store ptr %0, ptr %2, align 8
  %3 = load ptr, ptr %2, align 8
  %4 = call i64 @PointerGetDatum(ptr noundef %3)
  ret i64 %4
}

; Function Attrs: nounwind uwtable
define dso_local { i64, i32 } @RenameSchema(ptr noundef %0, ptr noundef %1) #0 {
  %3 = alloca %struct.ObjectAddress, align 4
  %4 = alloca ptr, align 8
  %5 = alloca ptr, align 8
  %6 = alloca i32, align 4
  %7 = alloca ptr, align 8
  %8 = alloca ptr, align 8
  %9 = alloca i32, align 4
  %10 = alloca ptr, align 8
  %11 = alloca { i64, i32 }, align 8
  store ptr %0, ptr %4, align 8
  store ptr %1, ptr %5, align 8
  call void @llvm.lifetime.start.p0(i64 4, ptr %6) #7
  call void @llvm.lifetime.start.p0(i64 8, ptr %7) #7
  call void @llvm.lifetime.start.p0(i64 8, ptr %8) #7
  call void @llvm.lifetime.start.p0(i64 4, ptr %9) #7
  call void @llvm.lifetime.start.p0(i64 8, ptr %10) #7
  %12 = call ptr @table_open(i32 noundef 2615, i32 noundef 3)
  store ptr %12, ptr %8, align 8
  %13 = load ptr, ptr %4, align 8
  %14 = call i64 @CStringGetDatum(ptr noundef %13)
  %15 = call ptr @SearchSysCacheCopy(i32 noundef 37, i64 noundef %14, i64 noundef 0, i64 noundef 0, i64 noundef 0)
  store ptr %15, ptr %7, align 8
  %16 = load ptr, ptr %7, align 8
  %17 = icmp ne ptr %16, null
  br i1 %17, label %31, label %18

18:                                               ; preds = %2
  br label %19

19:                                               ; preds = %18
  br i1 true, label %20, label %22

20:                                               ; preds = %19
  %21 = call zeroext i1 @errstart_cold(i32 noundef 21, ptr noundef null) #8
  br i1 %21, label %24, label %28

22:                                               ; preds = %19
  %23 = call zeroext i1 @errstart(i32 noundef 21, ptr noundef null)
  br i1 %23, label %24, label %28

24:                                               ; preds = %22, %20
  %25 = call i32 @errcode(i32 noundef 1411)
  %26 = load ptr, ptr %4, align 8
  %27 = call i32 (ptr, ...) @errmsg(ptr noundef @.str.7, ptr noundef %26)
  call void @errfinish(ptr noundef @.str.1, i32 noundef 264, ptr noundef @__func__.RenameSchema)
  br label %28

28:                                               ; preds = %24, %22, %20
  unreachable

29:                                               ; No predecessors!
  br label %30

30:                                               ; preds = %29
  br label %31

31:                                               ; preds = %30, %2
  %32 = load ptr, ptr %7, align 8
  %33 = call ptr @GETSTRUCT(ptr noundef %32)
  store ptr %33, ptr %10, align 8
  %34 = load ptr, ptr %10, align 8
  %35 = getelementptr inbounds nuw %struct.FormData_pg_namespace, ptr %34, i32 0, i32 0
  %36 = load i32, ptr %35, align 4
  store i32 %36, ptr %6, align 4
  %37 = load ptr, ptr %5, align 8
  %38 = call i32 @get_namespace_oid(ptr noundef %37, i1 noundef zeroext true)
  %39 = icmp ne i32 %38, 0
  br i1 %39, label %40, label %53

40:                                               ; preds = %31
  br label %41

41:                                               ; preds = %40
  br i1 true, label %42, label %44

42:                                               ; preds = %41
  %43 = call zeroext i1 @errstart_cold(i32 noundef 21, ptr noundef null) #8
  br i1 %43, label %46, label %50

44:                                               ; preds = %41
  %45 = call zeroext i1 @errstart(i32 noundef 21, ptr noundef null)
  br i1 %45, label %46, label %50

46:                                               ; preds = %44, %42
  %47 = call i32 @errcode(i32 noundef 100794500)
  %48 = load ptr, ptr %5, align 8
  %49 = call i32 (ptr, ...) @errmsg(ptr noundef @.str.8, ptr noundef %48)
  call void @errfinish(ptr noundef @.str.1, i32 noundef 273, ptr noundef @__func__.RenameSchema)
  br label %50

50:                                               ; preds = %46, %44, %42
  unreachable

51:                                               ; No predecessors!
  br label %52

52:                                               ; preds = %51
  br label %53

53:                                               ; preds = %52, %31
  %54 = load i32, ptr %6, align 4
  %55 = call i32 @GetUserId()
  %56 = call zeroext i1 @object_ownercheck(i32 noundef 2615, i32 noundef %54, i32 noundef %55)
  br i1 %56, label %59, label %57

57:                                               ; preds = %53
  %58 = load ptr, ptr %4, align 8
  call void @aclcheck_error(i32 noundef 2, i32 noundef 36, ptr noundef %58)
  br label %59

59:                                               ; preds = %57, %53
  %60 = load i32, ptr @MyDatabaseId, align 4
  %61 = call i32 @GetUserId()
  %62 = call i32 @object_aclcheck(i32 noundef 1262, i32 noundef %60, i32 noundef %61, i64 noundef 512)
  store i32 %62, ptr %9, align 4
  %63 = load i32, ptr %9, align 4
  %64 = icmp ne i32 %63, 0
  br i1 %64, label %65, label %69

65:                                               ; preds = %59
  %66 = load i32, ptr %9, align 4
  %67 = load i32, ptr @MyDatabaseId, align 4
  %68 = call ptr @get_database_name(i32 noundef %67)
  call void @aclcheck_error(i32 noundef %66, i32 noundef 9, ptr noundef %68)
  br label %69

69:                                               ; preds = %65, %59
  %70 = load i8, ptr @allowSystemTableMods, align 1, !range !4, !noundef !5
  %71 = trunc i8 %70 to i1
  br i1 %71, label %89, label %72

72:                                               ; preds = %69
  %73 = load ptr, ptr %5, align 8
  %74 = call zeroext i1 @IsReservedName(ptr noundef %73)
  br i1 %74, label %75, label %89

75:                                               ; preds = %72
  br label %76

76:                                               ; preds = %75
  br i1 true, label %77, label %79

77:                                               ; preds = %76
  %78 = call zeroext i1 @errstart_cold(i32 noundef 21, ptr noundef null) #8
  br i1 %78, label %81, label %86

79:                                               ; preds = %76
  %80 = call zeroext i1 @errstart(i32 noundef 21, ptr noundef null)
  br i1 %80, label %81, label %86

81:                                               ; preds = %79, %77
  %82 = call i32 @errcode(i32 noundef 151818372)
  %83 = load ptr, ptr %5, align 8
  %84 = call i32 (ptr, ...) @errmsg(ptr noundef @.str.2, ptr noundef %83)
  %85 = call i32 (ptr, ...) @errdetail(ptr noundef @.str.3)
  call void @errfinish(ptr noundef @.str.1, i32 noundef 290, ptr noundef @__func__.RenameSchema)
  br label %86

86:                                               ; preds = %81, %79, %77
  unreachable

87:                                               ; No predecessors!
  br label %88

88:                                               ; preds = %87
  br label %89

89:                                               ; preds = %88, %72, %69
  %90 = load ptr, ptr %10, align 8
  %91 = getelementptr inbounds nuw %struct.FormData_pg_namespace, ptr %90, i32 0, i32 1
  %92 = load ptr, ptr %5, align 8
  call void @namestrcpy(ptr noundef %91, ptr noundef %92)
  %93 = load ptr, ptr %8, align 8
  %94 = load ptr, ptr %7, align 8
  %95 = getelementptr inbounds nuw %struct.HeapTupleData, ptr %94, i32 0, i32 1
  %96 = load ptr, ptr %7, align 8
  call void @CatalogTupleUpdate(ptr noundef %93, ptr noundef %95, ptr noundef %96)
  br label %97

97:                                               ; preds = %89
  %98 = load ptr, ptr @object_access_hook, align 8
  %99 = icmp ne ptr %98, null
  br i1 %99, label %100, label %102

100:                                              ; preds = %97
  %101 = load i32, ptr %6, align 4
  call void @RunObjectPostAlterHook(i32 noundef 2615, i32 noundef %101, i32 noundef 0, i32 noundef 0, i1 noundef zeroext false)
  br label %102

102:                                              ; preds = %100, %97
  br label %103

103:                                              ; preds = %102
  br label %104

104:                                              ; preds = %103
  br label %105

105:                                              ; preds = %104
  %106 = getelementptr inbounds nuw %struct.ObjectAddress, ptr %3, i32 0, i32 0
  store i32 2615, ptr %106, align 4
  %107 = load i32, ptr %6, align 4
  %108 = getelementptr inbounds nuw %struct.ObjectAddress, ptr %3, i32 0, i32 1
  store i32 %107, ptr %108, align 4
  %109 = getelementptr inbounds nuw %struct.ObjectAddress, ptr %3, i32 0, i32 2
  store i32 0, ptr %109, align 4
  br label %110

110:                                              ; preds = %105
  br label %111

111:                                              ; preds = %110
  %112 = load ptr, ptr %8, align 8
  call void @table_close(ptr noundef %112, i32 noundef 0)
  %113 = load ptr, ptr %7, align 8
  call void @heap_freetuple(ptr noundef %113)
  call void @llvm.lifetime.end.p0(i64 8, ptr %10) #7
  call void @llvm.lifetime.end.p0(i64 4, ptr %9) #7
  call void @llvm.lifetime.end.p0(i64 8, ptr %8) #7
  call void @llvm.lifetime.end.p0(i64 8, ptr %7) #7
  call void @llvm.lifetime.end.p0(i64 4, ptr %6) #7
  call void @llvm.memcpy.p0.p0.i64(ptr align 8 %11, ptr align 4 %3, i64 12, i1 false)
  %114 = load { i64, i32 }, ptr %11, align 8
  ret { i64, i32 } %114
}