; Function Attrs: nounwind uwtable
define dso_local { i64, i32 } @RenameSchema(ptr noundef %0, ptr noundef %1) local_unnamed_addr #0 {
  %3 = tail call ptr @table_open(i32 noundef 2615, i32 noundef 3) #5
  %4 = ptrtoint ptr %0 to i64
  %5 = tail call ptr @SearchSysCacheCopy(i32 noundef 37, i64 noundef %4, i64 noundef 0, i64 noundef 0, i64 noundef 0) #5
  %.not = icmp eq ptr %5, null
  br i1 %.not, label %6, label %10

6:                                                ; preds = %2
  %7 = tail call zeroext i1 @errstart_cold(i32 noundef 21, ptr noundef null) #6
  tail call void @llvm.assume(i1 %7)
  %8 = tail call i32 @errcode(i32 noundef 1411) #5
  %9 = tail call i32 (ptr, ...) @errmsg(ptr noundef nonnull @.str.7, ptr noundef %0) #5
  tail call void @errfinish(ptr noundef nonnull @.str.1, i32 noundef 264, ptr noundef nonnull @__func__.RenameSchema) #5
  unreachable

10:                                               ; preds = %2
  %11 = getelementptr i8, ptr %5, i64 16
  %.val = load ptr, ptr %11, align 8
  %12 = getelementptr inbounds nuw i8, ptr %.val, i64 22
  %13 = load i8, ptr %12, align 2
  %14 = zext i8 %13 to i64
  %15 = getelementptr inbounds nuw i8, ptr %.val, i64 %14
  %16 = load i32, ptr %15, align 4
  %17 = tail call i32 @get_namespace_oid(ptr noundef %1, i1 noundef zeroext true) #5
  %.not24 = icmp eq i32 %17, 0
  br i1 %.not24, label %22, label %18

18:                                               ; preds = %10
  %19 = tail call zeroext i1 @errstart_cold(i32 noundef 21, ptr noundef null) #6
  tail call void @llvm.assume(i1 %19)
  %20 = tail call i32 @errcode(i32 noundef 100794500) #5
  %21 = tail call i32 (ptr, ...) @errmsg(ptr noundef nonnull @.str.8, ptr noundef %1) #5
  tail call void @errfinish(ptr noundef nonnull @.str.1, i32 noundef 273, ptr noundef nonnull @__func__.RenameSchema) #5
  unreachable

22:                                               ; preds = %10
  %23 = tail call i32 @GetUserId() #5
  %24 = tail call zeroext i1 @object_ownercheck(i32 noundef 2615, i32 noundef %16, i32 noundef %23) #5
  br i1 %24, label %26, label %25

25:                                               ; preds = %22
  tail call void @aclcheck_error(i32 noundef 2, i32 noundef 36, ptr noundef %0) #5
  br label %26

26:                                               ; preds = %25, %22
  %27 = load i32, ptr @MyDatabaseId, align 4
  %28 = tail call i32 @GetUserId() #5
  %29 = tail call i32 @object_aclcheck(i32 noundef 1262, i32 noundef %27, i32 noundef %28, i64 noundef 512) #5
  %.not25 = icmp eq i32 %29, 0
  br i1 %.not25, label %33, label %30

30:                                               ; preds = %26
  %31 = load i32, ptr @MyDatabaseId, align 4
  %32 = tail call ptr @get_database_name(i32 noundef %31) #5
  tail call void @aclcheck_error(i32 noundef %29, i32 noundef 9, ptr noundef %32) #5
  br label %33

33:                                               ; preds = %30, %26
  %34 = load i8, ptr @allowSystemTableMods, align 1, !range !4, !noundef !5
  %35 = trunc nuw i8 %34 to i1
  br i1 %35, label %43, label %36

36:                                               ; preds = %33
  %37 = tail call zeroext i1 @IsReservedName(ptr noundef %1) #5
  br i1 %37, label %38, label %43

38:                                               ; preds = %36
  %39 = tail call zeroext i1 @errstart_cold(i32 noundef 21, ptr noundef null) #6
  tail call void @llvm.assume(i1 %39)
  %40 = tail call i32 @errcode(i32 noundef 151818372) #5
  %41 = tail call i32 (ptr, ...) @errmsg(ptr noundef nonnull @.str.2, ptr noundef %1) #5
  %42 = tail call i32 (ptr, ...) @errdetail(ptr noundef nonnull @.str.3) #5
  tail call void @errfinish(ptr noundef nonnull @.str.1, i32 noundef 290, ptr noundef nonnull @__func__.RenameSchema) #5
  unreachable

43:                                               ; preds = %36, %33
  %44 = getelementptr inbounds nuw i8, ptr %15, i64 4
  tail call void @namestrcpy(ptr noundef nonnull %44, ptr noundef %1) #5
  %45 = getelementptr inbounds nuw i8, ptr %5, i64 4
  tail call void @CatalogTupleUpdate(ptr noundef %3, ptr noundef nonnull %45, ptr noundef nonnull %5) #5
  %46 = load ptr, ptr @object_access_hook, align 8
  %.not26 = icmp eq ptr %46, null
  br i1 %.not26, label %48, label %47

47:                                               ; preds = %43
  tail call void @RunObjectPostAlterHook(i32 noundef 2615, i32 noundef %16, i32 noundef 0, i32 noundef 0, i1 noundef zeroext false) #5
  br label %48

48:                                               ; preds = %43, %47
  tail call void @table_close(ptr noundef %3, i32 noundef 0) #5
  tail call void @heap_freetuple(ptr noundef nonnull %5) #5
  %.sroa.222.0.insert.ext = zext i32 %16 to i64
  %.sroa.222.0.insert.shift = shl nuw i64 %.sroa.222.0.insert.ext, 32
  %.sroa.021.0.insert.insert = or disjoint i64 %.sroa.222.0.insert.shift, 2615
  %.fca.0.insert = insertvalue { i64, i32 } poison, i64 %.sroa.021.0.insert.insert, 0
  %.fca.1.insert = insertvalue { i64, i32 } %.fca.0.insert, i32 0, 1
  ret { i64, i32 } %.fca.1.insert
}